; Function Attrs: inlinehint nounwind uwtable
define internal range(i32 0, 2) i32 @aes_generic_ocb_cipher(ptr noundef %0, ptr noundef %1, ptr noundef %2, i64 noundef %3) #4 {
  %5 = getelementptr inbounds nuw i8, ptr %0, i64 108
  %6 = load i8, ptr %5, align 4
  %7 = and i8 %6, 2
  %.not = icmp eq i8 %7, 0
  %8 = getelementptr inbounds nuw i8, ptr %0, i64 688
  br i1 %.not, label %11, label %9

9:                                                ; preds = %4
  %10 = tail call i32 @CRYPTO_ocb128_encrypt(ptr noundef nonnull %8, ptr noundef %1, ptr noundef %2, i64 noundef %3) #7
  %.not10 = icmp eq i32 %10, 0
  br i1 %.not10, label %14, label %13

11:                                               ; preds = %4
  %12 = tail call i32 @CRYPTO_ocb128_decrypt(ptr noundef nonnull %8, ptr noundef %1, ptr noundef %2, i64 noundef %3) #7
  %.not9 = icmp eq i32 %12, 0
  br i1 %.not9, label %14, label %13

13:                                               ; preds = %11, %9
  br label %14

14:                                               ; preds = %11, %9, %13
  %.0 = phi i32 [ 1, %13 ], [ 0, %9 ], [ 0, %11 ]
  ret i32 %.0
}